target datalayout = "e-m:e-p270:32:32-p271:32:32-p272:64:64-i64:64-i128:128-f80:128-n8:16:32:64-S128"
target triple = "x86_64-pc-linux-gnu"

%struct.anon = type { double, double, double, double, double, double, double, double }
%struct._generic_N_Vector = type { ptr, ptr, ptr }
%struct._N_VectorContent_Serial = type { i64, i32, ptr }

@.str = private unnamed_addr constant [18 x i8] c"SUNContext_Create\00", align 1
@.str.1 = private unnamed_addr constant [15 x i8] c"SUNDenseMatrix\00", align 1
@.str.2 = private unnamed_addr constant [16 x i8] c"SUNLinSol_Dense\00", align 1
@.str.3 = private unnamed_addr constant [19 x i8] c"IDASetLinearSolver\00", align 1
@stderr = external global ptr, align 8
@.str.19 = private unnamed_addr constant [55 x i8] c"\0ASUNDIALS_ERROR: %s() failed - returned NULL pointer\0A\0A\00", align 1
@.str.20 = private unnamed_addr constant [48 x i8] c"\0ASUNDIALS_ERROR: %s() failed with retval = %d\0A\0A\00", align 1
@.str.21 = private unnamed_addr constant [53 x i8] c"\0AMEMORY_ERROR: %s() failed - returned NULL pointer\0A\0A\00", align 1

; Function Attrs: nounwind uwtable
define internal i32 @check_retval(ptr noundef %0, ptr noundef %1, i32 noundef %2) #0 {
  %4 = alloca i32, align 4
  %5 = alloca ptr, align 8
  %6 = alloca ptr, align 8
  %7 = alloca i32, align 4
  %8 = alloca ptr, align 8
  %9 = alloca i32, align 4
  store ptr %0, ptr %5, align 8, !tbaa !13
  store ptr %1, ptr %6, align 8, !tbaa !36
  store i32 %2, ptr %7, align 4, !tbaa !11
  call void @llvm.lifetime.start.p0(i64 8, ptr %8) #6
  %10 = load i32, ptr %7, align 4, !tbaa !11
  %11 = icmp eq i32 %10, 0
  br i1 %11, label %12, label %19

12:                                               ; preds = %3
  %13 = load ptr, ptr %5, align 8, !tbaa !13
  %14 = icmp eq ptr %13, null
  br i1 %14, label %15, label %19

15:                                               ; preds = %12
  %16 = load ptr, ptr @stderr, align 8, !tbaa !38
  %17 = load ptr, ptr %6, align 8, !tbaa !36
  %18 = call i32 (ptr, ptr, ...) @fprintf(ptr noundef %16, ptr noundef @.str.19, ptr noundef %17) #6
  store i32 1, ptr %4, align 4
  store i32 1, ptr %9, align 4
  br label %47

19:                                               ; preds = %12, %3
  %20 = load i32, ptr %7, align 4, !tbaa !11
  %21 = icmp eq i32 %20, 1
  br i1 %21, label %22, label %34

22:                                               ; preds = %19
  %23 = load ptr, ptr %5, align 8, !tbaa !13
  store ptr %23, ptr %8, align 8, !tbaa !40
  %24 = load ptr, ptr %8, align 8, !tbaa !40
  %25 = load i32, ptr %24, align 4, !tbaa !11
  %26 = icmp slt i32 %25, 0
  br i1 %26, label %27, label %33

27:                                               ; preds = %22
  %28 = load ptr, ptr @stderr, align 8, !tbaa !38
  %29 = load ptr, ptr %6, align 8, !tbaa !36
  %30 = load ptr, ptr %8, align 8, !tbaa !40
  %31 = load i32, ptr %30, align 4, !tbaa !11
  %32 = call i32 (ptr, ptr, ...) @fprintf(ptr noundef %28, ptr noundef @.str.20, ptr noundef %29, i32 noundef %31) #6
  store i32 1, ptr %4, align 4
  store i32 1, ptr %9, align 4
  br label %47

33:                                               ; preds = %22
  br label %45

34:                                               ; preds = %19
  %35 = load i32, ptr %7, align 4, !tbaa !11
  %36 = icmp eq i32 %35, 2
  br i1 %36, label %37, label %44

37:                                               ; preds = %34
  %38 = load ptr, ptr %5, align 8, !tbaa !13
  %39 = icmp eq ptr %38, null
  br i1 %39, label %40, label %44

40:                                               ; preds = %37
  %41 = load ptr, ptr @stderr, align 8, !tbaa !38
  %42 = load ptr, ptr %6, align 8, !tbaa !36
  %43 = call i32 (ptr, ptr, ...) @fprintf(ptr noundef %41, ptr noundef @.str.21, ptr noundef %42) #6
  store i32 1, ptr %4, align 4
  store i32 1, ptr %9, align 4
  br label %47

44:                                               ; preds = %37, %34
  br label %45

45:                                               ; preds = %44, %33
  br label %46

46:                                               ; preds = %45
  store i32 0, ptr %4, align 4
  store i32 1, ptr %9, align 4
  br label %47

47:                                               ; preds = %46, %40, %27, %15
  call void @llvm.lifetime.end.p0(i64 8, ptr %8) #6
  %48 = load i32, ptr %4, align 4
  ret i32 %48
}

; Function Attrs: nounwind uwtable
define dso_local i32 @main() #0 {
  %1 = alloca i32, align 4
  %2 = alloca ptr, align 8
  %3 = alloca ptr, align 8
  %4 = alloca ptr, align 8
  %5 = alloca ptr, align 8
  %6 = alloca ptr, align 8
  %7 = alloca double, align 8
  %8 = alloca double, align 8
  %9 = alloca double, align 8
  %10 = alloca double, align 8
  %11 = alloca double, align 8
  %12 = alloca double, align 8
  %13 = alloca double, align 8
  %14 = alloca i32, align 4
  %15 = alloca i32, align 4
  %16 = alloca ptr, align 8
  %17 = alloca ptr, align 8
  %18 = alloca ptr, align 8
  %19 = alloca i32, align 4
  store i32 0, ptr %1, align 4
  call void @llvm.lifetime.start.p0(i64 8, ptr %2) #6
  call void @llvm.lifetime.start.p0(i64 8, ptr %3) #6
  call void @llvm.lifetime.start.p0(i64 8, ptr %4) #6
  call void @llvm.lifetime.start.p0(i64 8, ptr %5) #6
  call void @llvm.lifetime.start.p0(i64 8, ptr %6) #6
  call void @llvm.lifetime.start.p0(i64 8, ptr %7) #6
  call void @llvm.lifetime.start.p0(i64 8, ptr %8) #6
  call void @llvm.lifetime.start.p0(i64 8, ptr %9) #6
  call void @llvm.lifetime.start.p0(i64 8, ptr %10) #6
  call void @llvm.lifetime.start.p0(i64 8, ptr %11) #6
  call void @llvm.lifetime.start.p0(i64 8, ptr %12) #6
  call void @llvm.lifetime.start.p0(i64 8, ptr %13) #6
  call void @llvm.lifetime.start.p0(i64 4, ptr %14) #6
  call void @llvm.lifetime.start.p0(i64 4, ptr %15) #6
  call void @llvm.lifetime.start.p0(i64 8, ptr %16) #6
  call void @llvm.lifetime.start.p0(i64 8, ptr %17) #6
  call void @llvm.lifetime.start.p0(i64 8, ptr %18) #6
  store ptr null, ptr %16, align 8, !tbaa !4
  store ptr null, ptr %17, align 8, !tbaa !9
  %20 = call i32 @SUNContext_Create(i32 noundef 0, ptr noundef %18)
  store i32 %20, ptr %14, align 4, !tbaa !11
  %21 = call i32 @check_retval(ptr noundef %14, ptr noundef @.str, i32 noundef 1)
  %22 = icmp ne i32 %21, 0
  br i1 %22, label %23, label %24

23:                                               ; preds = %0
  store i32 1, ptr %1, align 4
  store i32 1, ptr %19, align 4
  br label %166

24:                                               ; preds = %0
  %25 = call noalias ptr @malloc(i64 noundef 64) #7
  store ptr %25, ptr %2, align 8, !tbaa !13
  %26 = load ptr, ptr %2, align 8, !tbaa !13
  %27 = getelementptr inbounds nuw %struct.anon, ptr %26, i32 0, i32 0
  store double 5.000000e-01, ptr %27, align 8, !tbaa !14
  %28 = load ptr, ptr %2, align 8, !tbaa !13
  %29 = getelementptr inbounds nuw %struct.anon, ptr %28, i32 0, i32 1
  store double 1.000000e+00, ptr %29, align 8, !tbaa !17
  %30 = load ptr, ptr %2, align 8, !tbaa !13
  %31 = getelementptr inbounds nuw %struct.anon, ptr %30, i32 0, i32 3
  store double 1.000000e+00, ptr %31, align 8, !tbaa !18
  %32 = load ptr, ptr %2, align 8, !tbaa !13
  %33 = getelementptr inbounds nuw %struct.anon, ptr %32, i32 0, i32 2
  store double 2.000000e+00, ptr %33, align 8, !tbaa !19
  %34 = load ptr, ptr %2, align 8, !tbaa !13
  %35 = getelementptr inbounds nuw %struct.anon, ptr %34, i32 0, i32 4
  store double 1.000000e+00, ptr %35, align 8, !tbaa !20
  %36 = load ptr, ptr %2, align 8, !tbaa !13
  %37 = getelementptr inbounds nuw %struct.anon, ptr %36, i32 0, i32 5
  store double 1.000000e+00, ptr %37, align 8, !tbaa !21
  %38 = load ptr, ptr %2, align 8, !tbaa !13
  %39 = getelementptr inbounds nuw %struct.anon, ptr %38, i32 0, i32 6
  store double 1.000000e+00, ptr %39, align 8, !tbaa !22
  %40 = load ptr, ptr %2, align 8, !tbaa !13
  %41 = getelementptr inbounds nuw %struct.anon, ptr %40, i32 0, i32 7
  store double 1.000000e+00, ptr %41, align 8, !tbaa !23
  %42 = load ptr, ptr %18, align 8, !tbaa !24
  %43 = call ptr @N_VNew_Serial(i64 noundef 10, ptr noundef %42)
  store ptr %43, ptr %4, align 8, !tbaa !26
  %44 = load ptr, ptr %4, align 8, !tbaa !26
  %45 = call ptr @N_VClone(ptr noundef %44)
  store ptr %45, ptr %5, align 8, !tbaa !26
  %46 = load ptr, ptr %4, align 8, !tbaa !26
  %47 = call ptr @N_VClone(ptr noundef %46)
  store ptr %47, ptr %6, align 8, !tbaa !26
  %48 = load ptr, ptr %4, align 8, !tbaa !26
  %49 = load ptr, ptr %5, align 8, !tbaa !26
  %50 = load ptr, ptr %2, align 8, !tbaa !13
  call void @setIC(ptr noundef %48, ptr noundef %49, ptr noundef %50)
  %51 = load ptr, ptr %6, align 8, !tbaa !26
  call void @N_VConst(double noundef 1.000000e+00, ptr noundef %51)
  %52 = load ptr, ptr %6, align 8, !tbaa !26
  %53 = getelementptr inbounds nuw %struct._generic_N_Vector, ptr %52, i32 0, i32 0
  %54 = load ptr, ptr %53, align 8, !tbaa !28
  %55 = getelementptr inbounds nuw %struct._N_VectorContent_Serial, ptr %54, i32 0, i32 2
  %56 = load ptr, ptr %55, align 8, !tbaa !31
  %57 = getelementptr inbounds double, ptr %56, i64 6
  store double 0.000000e+00, ptr %57, align 8, !tbaa !35
  %58 = load ptr, ptr %6, align 8, !tbaa !26
  %59 = getelementptr inbounds nuw %struct._generic_N_Vector, ptr %58, i32 0, i32 0
  %60 = load ptr, ptr %59, align 8, !tbaa !28
  %61 = getelementptr inbounds nuw %struct._N_VectorContent_Serial, ptr %60, i32 0, i32 2
  %62 = load ptr, ptr %61, align 8, !tbaa !31
  %63 = getelementptr inbounds double, ptr %62, i64 7
  store double 0.000000e+00, ptr %63, align 8, !tbaa !35
  %64 = load ptr, ptr %6, align 8, !tbaa !26
  %65 = getelementptr inbounds nuw %struct._generic_N_Vector, ptr %64, i32 0, i32 0
  %66 = load ptr, ptr %65, align 8, !tbaa !28
  %67 = getelementptr inbounds nuw %struct._N_VectorContent_Serial, ptr %66, i32 0, i32 2
  %68 = load ptr, ptr %67, align 8, !tbaa !31
  %69 = getelementptr inbounds double, ptr %68, i64 8
  store double 0.000000e+00, ptr %69, align 8, !tbaa !35
  %70 = load ptr, ptr %6, align 8, !tbaa !26
  %71 = getelementptr inbounds nuw %struct._generic_N_Vector, ptr %70, i32 0, i32 0
  %72 = load ptr, ptr %71, align 8, !tbaa !28
  %73 = getelementptr inbounds nuw %struct._N_VectorContent_Serial, ptr %72, i32 0, i32 2
  %74 = load ptr, ptr %73, align 8, !tbaa !31
  %75 = getelementptr inbounds double, ptr %74, i64 9
  store double 0.000000e+00, ptr %75, align 8, !tbaa !35
  store double 0x3EB0C6F7A0B5ED8D, ptr %7, align 8, !tbaa !35
  store double 0x3EB0C6F7A0B5ED8D, ptr %8, align 8, !tbaa !35
  store double 0.000000e+00, ptr %9, align 8, !tbaa !35
  store double 1.000000e+01, ptr %10, align 8, !tbaa !35
  %76 = load double, ptr %10, align 8, !tbaa !35
  %77 = load double, ptr %9, align 8, !tbaa !35
  %78 = fsub double %76, %77
  %79 = fdiv double %78, 4.000000e+01
  store double %79, ptr %12, align 8, !tbaa !35
  %80 = load ptr, ptr %18, align 8, !tbaa !24
  %81 = call ptr @IDACreate(ptr noundef %80)
  store ptr %81, ptr %3, align 8, !tbaa !13
  %82 = load ptr, ptr %3, align 8, !tbaa !13
  %83 = load double, ptr %9, align 8, !tbaa !35
  %84 = load ptr, ptr %4, align 8, !tbaa !26
  %85 = load ptr, ptr %5, align 8, !tbaa !26
  %86 = call i32 @IDAInit(ptr noundef %82, ptr noundef @ressc, double noundef %83, ptr noundef %84, ptr noundef %85)
  store i32 %86, ptr %14, align 4, !tbaa !11
  %87 = load ptr, ptr %3, align 8, !tbaa !13
  %88 = load double, ptr %7, align 8, !tbaa !35
  %89 = load double, ptr %8, align 8, !tbaa !35
  %90 = call i32 @IDASStolerances(ptr noundef %87, double noundef %88, double noundef %89)
  store i32 %90, ptr %14, align 4, !tbaa !11
  %91 = load ptr, ptr %3, align 8, !tbaa !13
  %92 = load ptr, ptr %2, align 8, !tbaa !13
  %93 = call i32 @IDASetUserData(ptr noundef %91, ptr noundef %92)
  store i32 %93, ptr %14, align 4, !tbaa !11
  %94 = load ptr, ptr %3, align 8, !tbaa !13
  %95 = load ptr, ptr %6, align 8, !tbaa !26
  %96 = call i32 @IDASetId(ptr noundef %94, ptr noundef %95)
  store i32 %96, ptr %14, align 4, !tbaa !11
  %97 = load ptr, ptr %3, align 8, !tbaa !13
  %98 = call i32 @IDASetSuppressAlg(ptr noundef %97, i32 noundef 1)
  store i32 %98, ptr %14, align 4, !tbaa !11
  %99 = load ptr, ptr %18, align 8, !tbaa !24
  %100 = call ptr @SUNDenseMatrix(i64 noundef 10, i64 noundef 10, ptr noundef %99)
  store ptr %100, ptr %16, align 8, !tbaa !4
  %101 = load ptr, ptr %16, align 8, !tbaa !4
  %102 = call i32 @check_retval(ptr noundef %101, ptr noundef @.str.1, i32 noundef 0)
  %103 = icmp ne i32 %102, 0
  br i1 %103, label %104, label %105

104:                                              ; preds = %24
  store i32 1, ptr %1, align 4
  store i32 1, ptr %19, align 4
  br label %166

105:                                              ; preds = %24
  %106 = load ptr, ptr %4, align 8, !tbaa !26
  %107 = load ptr, ptr %16, align 8, !tbaa !4
  %108 = load ptr, ptr %18, align 8, !tbaa !24
  %109 = call ptr @SUNLinSol_Dense(ptr noundef %106, ptr noundef %107, ptr noundef %108)
  store ptr %109, ptr %17, align 8, !tbaa !9
  %110 = load ptr, ptr %17, align 8, !tbaa !9
  %111 = call i32 @check_retval(ptr noundef %110, ptr noundef @.str.2, i32 noundef 0)
  %112 = icmp ne i32 %111, 0
  br i1 %112, label %113, label %114

113:                                              ; preds = %105
  store i32 1, ptr %1, align 4
  store i32 1, ptr %19, align 4
  br label %166

114:                                              ; preds = %105
  %115 = load ptr, ptr %3, align 8, !tbaa !13
  %116 = load ptr, ptr %17, align 8, !tbaa !9
  %117 = load ptr, ptr %16, align 8, !tbaa !4
  %118 = call i32 @IDASetLinearSolver(ptr noundef %115, ptr noundef %116, ptr noundef %117)
  store i32 %118, ptr %14, align 4, !tbaa !11
  %119 = call i32 @check_retval(ptr noundef %14, ptr noundef @.str.3, i32 noundef 1)
  %120 = icmp ne i32 %119, 0
  br i1 %120, label %121, label %122

121:                                              ; preds = %114
  store i32 1, ptr %1, align 4
  store i32 1, ptr %19, align 4
  br label %166

122:                                              ; preds = %114
  %123 = load double, ptr %7, align 8, !tbaa !35
  %124 = load double, ptr %8, align 8, !tbaa !35
  %125 = load ptr, ptr %4, align 8, !tbaa !26
  call void @PrintHeader(double noundef %123, double noundef %124, ptr noundef %125)
  %126 = load ptr, ptr %3, align 8, !tbaa !13
  %127 = load double, ptr %9, align 8, !tbaa !35
  %128 = load ptr, ptr %4, align 8, !tbaa !26
  %129 = call i32 @PrintOutput(ptr noundef %126, double noundef %127, ptr noundef %128)
  store i32 %129, ptr %14, align 4, !tbaa !11
  %130 = load double, ptr %12, align 8, !tbaa !35
  store double %130, ptr %11, align 8, !tbaa !35
  store i32 1, ptr %15, align 4, !tbaa !11
  br label %131

131:                                              ; preds = %152, %122
  %132 = load i32, ptr %15, align 4, !tbaa !11
  %133 = icmp slt i32 %132, 41
  br i1 %133, label %134, label %155

134:                                              ; preds = %131
  %135 = load i32, ptr %15, align 4, !tbaa !11
  %136 = sitofp i32 %135 to double
  %137 = load double, ptr %12, align 8, !tbaa !35
  %138 = fmul double %136, %137
  store double %138, ptr %11, align 8, !tbaa !35
  %139 = load ptr, ptr %3, align 8, !tbaa !13
  %140 = load double, ptr %11, align 8, !tbaa !35
  %141 = load ptr, ptr %4, align 8, !tbaa !26
  %142 = load ptr, ptr %5, align 8, !tbaa !26
  %143 = call i32 @IDASolve(ptr noundef %139, double noundef %140, ptr noundef %13, ptr noundef %141, ptr noundef %142, i32 noundef 1)
  store i32 %143, ptr %14, align 4, !tbaa !11
  %144 = load i32, ptr %14, align 4, !tbaa !11
  %145 = icmp slt i32 %144, 0
  br i1 %145, label %146, label %147

146:                                              ; preds = %134
  br label %155

147:                                              ; preds = %134
  %148 = load ptr, ptr %3, align 8, !tbaa !13
  %149 = load double, ptr %13, align 8, !tbaa !35
  %150 = load ptr, ptr %4, align 8, !tbaa !26
  %151 = call i32 @PrintOutput(ptr noundef %148, double noundef %149, ptr noundef %150)
  store i32 %151, ptr %14, align 4, !tbaa !11
  br label %152

152:                                              ; preds = %147
  %153 = load i32, ptr %15, align 4, !tbaa !11
  %154 = add nsw i32 %153, 1
  store i32 %154, ptr %15, align 4, !tbaa !11
  br label %131

155:                                              ; preds = %146, %131
  %156 = load ptr, ptr %3, align 8, !tbaa !13
  %157 = call i32 @PrintFinalStats(ptr noundef %156)
  store i32 %157, ptr %14, align 4, !tbaa !11
  %158 = load ptr, ptr %2, align 8, !tbaa !13
  call void @free(ptr noundef %158) #6
  call void @IDAFree(ptr noundef %3)
  %159 = load ptr, ptr %17, align 8, !tbaa !9
  %160 = call i32 @SUNLinSolFree(ptr noundef %159)
  %161 = load ptr, ptr %16, align 8, !tbaa !4
  call void @SUNMatDestroy(ptr noundef %161)
  %162 = load ptr, ptr %4, align 8, !tbaa !26
  call void @N_VDestroy(ptr noundef %162)
  %163 = load ptr, ptr %5, align 8, !tbaa !26
  call void @N_VDestroy(ptr noundef %163)
  %164 = load ptr, ptr %6, align 8, !tbaa !26
  call void @N_VDestroy(ptr noundef %164)
  %165 = call i32 @SUNContext_Free(ptr noundef %18)
  store i32 0, ptr %1, align 4
  store i32 1, ptr %19, align 4
  br label %166

166:                                              ; preds = %155, %121, %113, %104, %23
  call void @llvm.lifetime.end.p0(i64 8, ptr %18) #6
  call void @llvm.lifetime.end.p0(i64 8, ptr %17) #6
  call void @llvm.lifetime.end.p0(i64 8, ptr %16) #6
  call void @llvm.lifetime.end.p0(i64 4, ptr %15) #6
  call void @llvm.lifetime.end.p0(i64 4, ptr %14) #6
  call void @llvm.lifetime.end.p0(i64 8, ptr %13) #6
  call void @llvm.lifetime.end.p0(i64 8, ptr %12) #6
  call void @llvm.lifetime.end.p0(i64 8, ptr %11) #6
  call void @llvm.lifetime.end.p0(i64 8, ptr %10) #6
  call void @llvm.lifetime.end.p0(i64 8, ptr %9) #6
  call void @llvm.lifetime.end.p0(i64 8, ptr %8) #6
  call void @llvm.lifetime.end.p0(i64 8, ptr %7) #6
  call void @llvm.lifetime.end.p0(i64 8, ptr %6) #6
  call void @llvm.lifetime.end.p0(i64 8, ptr %5) #6
  call void @llvm.lifetime.end.p0(i64 8, ptr %4) #6
  call void @llvm.lifetime.end.p0(i64 8, ptr %3) #6
  call void @llvm.lifetime.end.p0(i64 8, ptr %2) #6
  %167 = load i32, ptr %1, align 4
  ret i32 %167
}