; Function Attrs: nounwind uwtable
define dso_local range(i32 0, 2) i32 @main() local_unnamed_addr #0 {
  %1 = alloca i32, align 4
  %2 = alloca i64, align 8
  %3 = alloca double, align 8
  %4 = alloca ptr, align 8
  %5 = alloca double, align 8
  %6 = alloca ptr, align 8
  call void @llvm.lifetime.start.p0(i64 8, ptr nonnull %4) #12
  call void @llvm.lifetime.start.p0(i64 8, ptr nonnull %5) #12
  call void @llvm.lifetime.start.p0(i64 8, ptr nonnull %6) #12
  %7 = call i32 @SUNContext_Create(i32 noundef 0, ptr noundef nonnull %6) #12
  %8 = icmp slt i32 %7, 0
  br i1 %8, label %check_retval.exit, label %11

check_retval.exit:                                ; preds = %0
  %9 = load ptr, ptr @stderr, align 8, !tbaa !4
  %10 = call i32 (ptr, ptr, ...) @fprintf(ptr noundef %9, ptr noundef nonnull @.str.20, ptr noundef nonnull @.str, i32 noundef %7) #13
  br label %76

11:                                               ; preds = %0
  %12 = call noalias dereferenceable_or_null(64) ptr @malloc(i64 noundef 64) #14
  store double 5.000000e-01, ptr %12, align 8, !tbaa !9
  %13 = getelementptr inbounds nuw i8, ptr %12, i64 8
  store double 1.000000e+00, ptr %13, align 8, !tbaa !12
  %14 = getelementptr inbounds nuw i8, ptr %12, i64 24
  store double 1.000000e+00, ptr %14, align 8, !tbaa !13
  %15 = getelementptr inbounds nuw i8, ptr %12, i64 16
  store double 2.000000e+00, ptr %15, align 8, !tbaa !14
  %16 = getelementptr inbounds nuw i8, ptr %12, i64 32
  store double 1.000000e+00, ptr %16, align 8, !tbaa !15
  %17 = getelementptr inbounds nuw i8, ptr %12, i64 40
  store double 1.000000e+00, ptr %17, align 8, !tbaa !16
  %18 = getelementptr inbounds nuw i8, ptr %12, i64 48
  store double 1.000000e+00, ptr %18, align 8, !tbaa !17
  %19 = getelementptr inbounds nuw i8, ptr %12, i64 56
  store double 1.000000e+00, ptr %19, align 8, !tbaa !18
  %20 = load ptr, ptr %6, align 8, !tbaa !19
  %21 = call ptr @N_VNew_Serial(i64 noundef 10, ptr noundef %20) #12
  %22 = call ptr @N_VClone(ptr noundef %21) #12
  %23 = call ptr @N_VClone(ptr noundef %21) #12
  call void @setIC(ptr noundef %21, ptr noundef %22, ptr noundef nonnull %12)
  call void @N_VConst(double noundef 1.000000e+00, ptr noundef %23) #12
  %24 = load ptr, ptr %23, align 8, !tbaa !21
  %25 = getelementptr inbounds nuw i8, ptr %24, i64 16
  %26 = load ptr, ptr %25, align 8, !tbaa !24
  %27 = getelementptr inbounds nuw i8, ptr %26, i64 48
  call void @llvm.memset.p0.i64(ptr noundef nonnull align 8 dereferenceable(32) %27, i8 0, i64 32, i1 false)
  %28 = load ptr, ptr %6, align 8, !tbaa !19
  %29 = call ptr @IDACreate(ptr noundef %28) #12
  store ptr %29, ptr %4, align 8, !tbaa !29
  %30 = call i32 @IDAInit(ptr noundef %29, ptr noundef nonnull @ressc, double noundef 0.000000e+00, ptr noundef %21, ptr noundef %22) #12
  %31 = call i32 @IDASStolerances(ptr noundef %29, double noundef 0x3EB0C6F7A0B5ED8D, double noundef 0x3EB0C6F7A0B5ED8D) #12
  %32 = call i32 @IDASetUserData(ptr noundef %29, ptr noundef nonnull %12) #12
  %33 = call i32 @IDASetId(ptr noundef %29, ptr noundef nonnull %23) #12
  %34 = call i32 @IDASetSuppressAlg(ptr noundef %29, i32 noundef 1) #12
  %35 = load ptr, ptr %6, align 8, !tbaa !19
  %36 = call ptr @SUNDenseMatrix(i64 noundef 10, i64 noundef 10, ptr noundef %35) #12
  %37 = icmp eq ptr %36, null
  br i1 %37, label %check_retval.exit58, label %40

check_retval.exit58:                              ; preds = %11
  %38 = load ptr, ptr @stderr, align 8, !tbaa !4
  %39 = call i32 (ptr, ptr, ...) @fprintf(ptr noundef %38, ptr noundef nonnull @.str.19, ptr noundef nonnull @.str.1) #13
  br label %76

40:                                               ; preds = %11
  %41 = load ptr, ptr %6, align 8, !tbaa !19
  %42 = call ptr @SUNLinSol_Dense(ptr noundef %21, ptr noundef nonnull %36, ptr noundef %41) #12
  %43 = icmp eq ptr %42, null
  br i1 %43, label %check_retval.exit60, label %46

check_retval.exit60:                              ; preds = %40
  %44 = load ptr, ptr @stderr, align 8, !tbaa !4
  %45 = call i32 (ptr, ptr, ...) @fprintf(ptr noundef %44, ptr noundef nonnull @.str.19, ptr noundef nonnull @.str.2) #13
  br label %76

46:                                               ; preds = %40
  %47 = call i32 @IDASetLinearSolver(ptr noundef %29, ptr noundef nonnull %42, ptr noundef nonnull %36) #12
  %48 = icmp slt i32 %47, 0
  br i1 %48, label %check_retval.exit62, label %51

check_retval.exit62:                              ; preds = %46
  %49 = load ptr, ptr @stderr, align 8, !tbaa !4
  %50 = call i32 (ptr, ptr, ...) @fprintf(ptr noundef %49, ptr noundef nonnull @.str.20, ptr noundef nonnull @.str.3, i32 noundef %47) #13
  br label %76

51:                                               ; preds = %46
  call fastcc void @PrintHeader()
  call fastcc void @PrintOutput(ptr noundef %29, double noundef 0.000000e+00, ptr noundef %21)
  br label %52

52:                                               ; preds = %51, %57
  %.072 = phi i32 [ 1, %51 ], [ %72, %57 ]
  %53 = uitofp nneg i32 %.072 to double
  %54 = fmul double %53, 2.500000e-01
  %55 = call i32 @IDASolve(ptr noundef %29, double noundef %54, ptr noundef nonnull %5, ptr noundef %21, ptr noundef %22, i32 noundef 1) #12
  %56 = icmp slt i32 %55, 0
  br i1 %56, label %73, label %57

57:                                               ; preds = %52
  %58 = load double, ptr %5, align 8, !tbaa !30
  call void @llvm.lifetime.start.p0(i64 4, ptr nonnull %1) #12
  call void @llvm.lifetime.start.p0(i64 8, ptr nonnull %2) #12
  call void @llvm.lifetime.start.p0(i64 8, ptr nonnull %3) #12
  %59 = call ptr @N_VGetArrayPointer(ptr noundef %21) #12
  %60 = call i32 @IDAGetLastOrder(ptr noundef %29, ptr noundef nonnull %1) #12
  %61 = call i32 @IDAGetNumSteps(ptr noundef %29, ptr noundef nonnull %2) #12
  %62 = call i32 @IDAGetLastStep(ptr noundef %29, ptr noundef nonnull %3) #12
  %63 = load double, ptr %59, align 8, !tbaa !30
  %64 = getelementptr inbounds nuw i8, ptr %59, i64 8
  %65 = load double, ptr %64, align 8, !tbaa !30
  %66 = getelementptr inbounds nuw i8, ptr %59, i64 16
  %67 = load double, ptr %66, align 8, !tbaa !30
  %68 = load i64, ptr %2, align 8, !tbaa !31
  %69 = load i32, ptr %1, align 4, !tbaa !32
  %70 = load double, ptr %3, align 8, !tbaa !30
  %71 = call i32 (ptr, ...) @printf(ptr noundef nonnull dereferenceable(1) @.str.10, double noundef %58, double noundef %63, double noundef %65, double noundef %67, i64 noundef %68, i32 noundef %69, double noundef %70)
  call void @llvm.lifetime.end.p0(i64 8, ptr nonnull %3) #12
  call void @llvm.lifetime.end.p0(i64 8, ptr nonnull %2) #12
  call void @llvm.lifetime.end.p0(i64 4, ptr nonnull %1) #12
  %72 = add nuw nsw i32 %.072, 1
  %exitcond.not = icmp eq i32 %72, 41
  br i1 %exitcond.not, label %73, label %52

73:                                               ; preds = %52, %57
  call fastcc void @PrintFinalStats(ptr noundef %29)
  call void @free(ptr noundef %12) #12
  call void @IDAFree(ptr noundef nonnull %4) #12
  %74 = call i32 @SUNLinSolFree(ptr noundef nonnull %42) #12
  call void @SUNMatDestroy(ptr noundef nonnull %36) #12
  call void @N_VDestroy(ptr noundef %21) #12
  call void @N_VDestroy(ptr noundef %22) #12
  call void @N_VDestroy(ptr noundef nonnull %23) #12
  %75 = call i32 @SUNContext_Free(ptr noundef nonnull %6) #12
  br label %76

76:                                               ; preds = %check_retval.exit62, %check_retval.exit60, %check_retval.exit58, %check_retval.exit, %73
  %.053 = phi i32 [ 0, %73 ], [ 1, %check_retval.exit ], [ 1, %check_retval.exit58 ], [ 1, %check_retval.exit60 ], [ 1, %check_retval.exit62 ]
  call void @llvm.lifetime.end.p0(i64 8, ptr nonnull %6) #12
  call void @llvm.lifetime.end.p0(i64 8, ptr nonnull %5) #12
  call void @llvm.lifetime.end.p0(i64 8, ptr nonnull %4) #12
  ret i32 %.053
}